target datalayout = "e-m:e-p270:32:32-p271:32:32-p272:64:64-i64:64-i128:128-f80:128-n8:16:32:64-S128"
target triple = "x86_64-pc-linux-gnu"

%struct.Gia_Man_t_ = type { ptr, ptr, i32, i32, i32, i32, ptr, ptr, i32, i32, i32, ptr, ptr, %struct.Vec_Int_t_, %struct.Vec_Int_t_, i32, i32, i32, %struct.Vec_Int_t_, ptr, ptr, ptr, i32, i32, i32, i32, ptr, ptr, ptr, ptr, ptr, i32, i32, ptr, i32, ptr, ptr, ptr, ptr, ptr, ptr, ptr, ptr, ptr, ptr, ptr, ptr, ptr, ptr, ptr, ptr, ptr, ptr, %struct.Vec_Int_t_, %struct.Vec_Int_t_, ptr, ptr, ptr, ptr, ptr, ptr, ptr, ptr, ptr, ptr, ptr, ptr, ptr, ptr, ptr, ptr, ptr, ptr, ptr, ptr, ptr, i32, float, float, ptr, ptr, i32, ptr, ptr, ptr, ptr, ptr, ptr, ptr, ptr, ptr, ptr, ptr, ptr, ptr, ptr, ptr, i64, i64, ptr, ptr, i32, i32, i32, i32, i32, i32, i32, i32, i32, i32, i32, i32, ptr, ptr, ptr, ptr, ptr, ptr, ptr, ptr, i32, i32, i32, ptr, i32, i32, ptr, ptr, ptr, ptr, ptr, ptr, i32, i32, ptr, %struct.Vec_Int_t_, %struct.Vec_Int_t_, %struct.Vec_Int_t_, ptr, ptr, ptr, i32, i32, i32, i32, ptr, ptr, ptr, ptr, ptr }
%struct.Vec_Int_t_ = type { i32, i32, ptr }
%struct.Gia_Obj_t_ = type <{ i64, i32 }>
%struct.Gia_Rpr_t_ = type { i32 }

; Function Attrs: inlinehint nounwind uwtable
define internal ptr @Gia_ManObj(ptr noundef %0, i32 noundef %1) #1 {
  %3 = alloca ptr, align 8
  %4 = alloca i32, align 4
  store ptr %0, ptr %3, align 8, !tbaa !3
  store i32 %1, ptr %4, align 4, !tbaa !33
  %5 = load ptr, ptr %3, align 8, !tbaa !3
  %6 = getelementptr inbounds nuw %struct.Gia_Man_t_, ptr %5, i32 0, i32 6
  %7 = load ptr, ptr %6, align 8, !tbaa !43
  %8 = load i32, ptr %4, align 4, !tbaa !33
  %9 = sext i32 %8 to i64
  %10 = getelementptr inbounds %struct.Gia_Obj_t_, ptr %7, i64 %9
  ret ptr %10
}

; Function Attrs: inlinehint nounwind uwtable
define internal i32 @Vec_IntEntry(ptr noundef %0, i32 noundef %1) #1 {
  %3 = alloca ptr, align 8
  %4 = alloca i32, align 4
  store ptr %0, ptr %3, align 8, !tbaa !31
  store i32 %1, ptr %4, align 4, !tbaa !33
  %5 = load ptr, ptr %3, align 8, !tbaa !31
  %6 = getelementptr inbounds nuw %struct.Vec_Int_t_, ptr %5, i32 0, i32 2
  %7 = load ptr, ptr %6, align 8, !tbaa !32
  %8 = load i32, ptr %4, align 4, !tbaa !33
  %9 = sext i32 %8 to i64
  %10 = getelementptr inbounds i32, ptr %7, i64 %9
  %11 = load i32, ptr %10, align 4, !tbaa !33
  ret i32 %11
}

; Function Attrs: inlinehint nounwind uwtable
define internal i32 @Vec_IntSize(ptr noundef %0) #1 {
  %2 = alloca ptr, align 8
  store ptr %0, ptr %2, align 8, !tbaa !31
  %3 = load ptr, ptr %2, align 8, !tbaa !31
  %4 = getelementptr inbounds nuw %struct.Vec_Int_t_, ptr %3, i32 0, i32 1
  %5 = load i32, ptr %4, align 4, !tbaa !34
  ret i32 %5
}

; Function Attrs: inlinehint nounwind uwtable
define internal ptr @Gia_ManCo(ptr noundef %0, i32 noundef %1) #1 {
  %3 = alloca ptr, align 8
  %4 = alloca i32, align 4
  store ptr %0, ptr %3, align 8, !tbaa !3
  store i32 %1, ptr %4, align 4, !tbaa !33
  %5 = load ptr, ptr %3, align 8, !tbaa !3
  %6 = load ptr, ptr %3, align 8, !tbaa !3
  %7 = getelementptr inbounds nuw %struct.Gia_Man_t_, ptr %6, i32 0, i32 12
  %8 = load ptr, ptr %7, align 8, !tbaa !51
  %9 = load i32, ptr %4, align 4, !tbaa !33
  %10 = call i32 @Vec_IntEntry(ptr noundef %8, i32 noundef %9)
  %11 = call ptr @Gia_ManObj(ptr noundef %5, i32 noundef %10)
  ret ptr %11
}

; Function Attrs: inlinehint nounwind uwtable
define internal i32 @Gia_ManCiNum(ptr noundef %0) #1 {
  %2 = alloca ptr, align 8
  store ptr %0, ptr %2, align 8, !tbaa !3
  %3 = load ptr, ptr %2, align 8, !tbaa !3
  %4 = getelementptr inbounds nuw %struct.Gia_Man_t_, ptr %3, i32 0, i32 11
  %5 = load ptr, ptr %4, align 8, !tbaa !48
  %6 = call i32 @Vec_IntSize(ptr noundef %5)
  ret i32 %6
}

; Function Attrs: inlinehint nounwind uwtable
define internal i32 @Gia_ManCoNum(ptr noundef %0) #1 {
  %2 = alloca ptr, align 8
  store ptr %0, ptr %2, align 8, !tbaa !3
  %3 = load ptr, ptr %2, align 8, !tbaa !3
  %4 = getelementptr inbounds nuw %struct.Gia_Man_t_, ptr %3, i32 0, i32 12
  %5 = load ptr, ptr %4, align 8, !tbaa !51
  %6 = call i32 @Vec_IntSize(ptr noundef %5)
  ret i32 %6
}

; Function Attrs: inlinehint nounwind uwtable
define internal i32 @Gia_ManPiNum(ptr noundef %0) #1 {
  %2 = alloca ptr, align 8
  store ptr %0, ptr %2, align 8, !tbaa !3
  %3 = load ptr, ptr %2, align 8, !tbaa !3
  %4 = getelementptr inbounds nuw %struct.Gia_Man_t_, ptr %3, i32 0, i32 11
  %5 = load ptr, ptr %4, align 8, !tbaa !48
  %6 = call i32 @Vec_IntSize(ptr noundef %5)
  %7 = load ptr, ptr %2, align 8, !tbaa !3
  %8 = getelementptr inbounds nuw %struct.Gia_Man_t_, ptr %7, i32 0, i32 2
  %9 = load i32, ptr %8, align 8, !tbaa !100
  %10 = sub nsw i32 %6, %9
  ret i32 %10
}

; Function Attrs: inlinehint nounwind uwtable
define internal i32 @Gia_ObjCioId(ptr noundef %0) #1 {
  %2 = alloca ptr, align 8
  store ptr %0, ptr %2, align 8, !tbaa !38
  %3 = load ptr, ptr %2, align 8, !tbaa !38
  %4 = load i64, ptr %3, align 4
  %5 = lshr i64 %4, 32
  %6 = and i64 %5, 536870911
  %7 = trunc i64 %6 to i32
  ret i32 %7
}

; Function Attrs: inlinehint nounwind uwtable
define internal i32 @Gia_ObjIsCi(ptr noundef %0) #1 {
  %2 = alloca ptr, align 8
  store ptr %0, ptr %2, align 8, !tbaa !38
  %3 = load ptr, ptr %2, align 8, !tbaa !38
  %4 = load i64, ptr %3, align 4
  %5 = lshr i64 %4, 31
  %6 = and i64 %5, 1
  %7 = trunc i64 %6 to i32
  %8 = icmp ne i32 %7, 0
  br i1 %8, label %9, label %15

9:                                                ; preds = %1
  %10 = load ptr, ptr %2, align 8, !tbaa !38
  %11 = load i64, ptr %10, align 4
  %12 = and i64 %11, 536870911
  %13 = trunc i64 %12 to i32
  %14 = icmp eq i32 %13, 536870911
  br label %15

15:                                               ; preds = %9, %1
  %16 = phi i1 [ false, %1 ], [ %14, %9 ]
  %17 = zext i1 %16 to i32
  ret i32 %17
}

; Function Attrs: inlinehint nounwind uwtable
define internal ptr @Gia_ObjFanin1(ptr noundef %0) #1 {
  %2 = alloca ptr, align 8
  store ptr %0, ptr %2, align 8, !tbaa !38
  %3 = load ptr, ptr %2, align 8, !tbaa !38
  %4 = load ptr, ptr %2, align 8, !tbaa !38
  %5 = load i64, ptr %4, align 4
  %6 = lshr i64 %5, 32
  %7 = and i64 %6, 536870911
  %8 = trunc i64 %7 to i32
  %9 = sext i32 %8 to i64
  %10 = sub i64 0, %9
  %11 = getelementptr inbounds %struct.Gia_Obj_t_, ptr %3, i64 %10
  ret ptr %11
}

; Function Attrs: inlinehint nounwind uwtable
define internal ptr @Gia_ObjFanin0(ptr noundef %0) #1 {
  %2 = alloca ptr, align 8
  store ptr %0, ptr %2, align 8, !tbaa !38
  %3 = load ptr, ptr %2, align 8, !tbaa !38
  %4 = load ptr, ptr %2, align 8, !tbaa !38
  %5 = load i64, ptr %4, align 4
  %6 = and i64 %5, 536870911
  %7 = trunc i64 %6 to i32
  %8 = sext i32 %7 to i64
  %9 = sub i64 0, %8
  %10 = getelementptr inbounds %struct.Gia_Obj_t_, ptr %3, i64 %9
  ret ptr %10
}

; Function Attrs: inlinehint nounwind uwtable
define internal ptr @Gia_ObjRoToRi(ptr noundef %0, ptr noundef %1) #1 {
  %3 = alloca ptr, align 8
  %4 = alloca ptr, align 8
  store ptr %0, ptr %3, align 8, !tbaa !3
  store ptr %1, ptr %4, align 8, !tbaa !38
  %5 = load ptr, ptr %3, align 8, !tbaa !3
  %6 = load ptr, ptr %3, align 8, !tbaa !3
  %7 = call i32 @Gia_ManCoNum(ptr noundef %6)
  %8 = load ptr, ptr %3, align 8, !tbaa !3
  %9 = call i32 @Gia_ManCiNum(ptr noundef %8)
  %10 = sub nsw i32 %7, %9
  %11 = load ptr, ptr %4, align 8, !tbaa !38
  %12 = call i32 @Gia_ObjCioId(ptr noundef %11)
  %13 = add nsw i32 %10, %12
  %14 = call ptr @Gia_ManCo(ptr noundef %5, i32 noundef %13)
  ret ptr %14
}

; Function Attrs: inlinehint nounwind uwtable
define internal i32 @Gia_ObjIsRo(ptr noundef %0, ptr noundef %1) #1 {
  %3 = alloca ptr, align 8
  %4 = alloca ptr, align 8
  store ptr %0, ptr %3, align 8, !tbaa !3
  store ptr %1, ptr %4, align 8, !tbaa !38
  %5 = load ptr, ptr %4, align 8, !tbaa !38
  %6 = call i32 @Gia_ObjIsCi(ptr noundef %5)
  %7 = icmp ne i32 %6, 0
  br i1 %7, label %8, label %14

8:                                                ; preds = %2
  %9 = load ptr, ptr %4, align 8, !tbaa !38
  %10 = call i32 @Gia_ObjCioId(ptr noundef %9)
  %11 = load ptr, ptr %3, align 8, !tbaa !3
  %12 = call i32 @Gia_ManPiNum(ptr noundef %11)
  %13 = icmp sge i32 %10, %12
  br label %14

14:                                               ; preds = %8, %2
  %15 = phi i1 [ false, %2 ], [ %13, %8 ]
  %16 = zext i1 %15 to i32
  ret i32 %16
}

; Function Attrs: inlinehint nounwind uwtable
define internal i32 @Gia_ObjVisitColor(ptr noundef %0, i32 noundef %1, i32 noundef %2) #1 {
  %4 = alloca ptr, align 8
  %5 = alloca i32, align 4
  %6 = alloca i32, align 4
  %7 = alloca i32, align 4
  store ptr %0, ptr %4, align 8, !tbaa !3
  store i32 %1, ptr %5, align 4, !tbaa !33
  store i32 %2, ptr %6, align 4, !tbaa !33
  call void @llvm.lifetime.start.p0(i64 4, ptr %7) #12
  %8 = load i32, ptr %6, align 4, !tbaa !33
  %9 = icmp ne i32 %8, 0
  br i1 %9, label %10, label %28

10:                                               ; preds = %3
  %11 = load ptr, ptr %4, align 8, !tbaa !3
  %12 = getelementptr inbounds nuw %struct.Gia_Man_t_, ptr %11, i32 0, i32 27
  %13 = load ptr, ptr %12, align 8, !tbaa !53
  %14 = load i32, ptr %5, align 4, !tbaa !33
  %15 = sext i32 %14 to i64
  %16 = getelementptr inbounds %struct.Gia_Rpr_t_, ptr %13, i64 %15
  %17 = load i32, ptr %16, align 4
  %18 = lshr i32 %17, 31
  store i32 %18, ptr %7, align 4, !tbaa !33
  %19 = load ptr, ptr %4, align 8, !tbaa !3
  %20 = getelementptr inbounds nuw %struct.Gia_Man_t_, ptr %19, i32 0, i32 27
  %21 = load ptr, ptr %20, align 8, !tbaa !53
  %22 = load i32, ptr %5, align 4, !tbaa !33
  %23 = sext i32 %22 to i64
  %24 = getelementptr inbounds %struct.Gia_Rpr_t_, ptr %21, i64 %23
  %25 = load i32, ptr %24, align 4
  %26 = and i32 %25, 2147483647
  %27 = or i32 %26, -2147483648
  store i32 %27, ptr %24, align 4
  br label %47

28:                                               ; preds = %3
  %29 = load ptr, ptr %4, align 8, !tbaa !3
  %30 = getelementptr inbounds nuw %struct.Gia_Man_t_, ptr %29, i32 0, i32 27
  %31 = load ptr, ptr %30, align 8, !tbaa !53
  %32 = load i32, ptr %5, align 4, !tbaa !33
  %33 = sext i32 %32 to i64
  %34 = getelementptr inbounds %struct.Gia_Rpr_t_, ptr %31, i64 %33
  %35 = load i32, ptr %34, align 4
  %36 = lshr i32 %35, 30
  %37 = and i32 %36, 1
  store i32 %37, ptr %7, align 4, !tbaa !33
  %38 = load ptr, ptr %4, align 8, !tbaa !3
  %39 = getelementptr inbounds nuw %struct.Gia_Man_t_, ptr %38, i32 0, i32 27
  %40 = load ptr, ptr %39, align 8, !tbaa !53
  %41 = load i32, ptr %5, align 4, !tbaa !33
  %42 = sext i32 %41 to i64
  %43 = getelementptr inbounds %struct.Gia_Rpr_t_, ptr %40, i64 %42
  %44 = load i32, ptr %43, align 4
  %45 = and i32 %44, -1073741825
  %46 = or i32 %45, 1073741824
  store i32 %46, ptr %43, align 4
  br label %47

47:                                               ; preds = %28, %10
  %48 = load i32, ptr %7, align 4, !tbaa !33
  call void @llvm.lifetime.end.p0(i64 4, ptr %7) #12
  ret i32 %48
}

; Function Attrs: inlinehint nounwind uwtable
define internal i32 @Gia_ObjId(ptr noundef %0, ptr noundef %1) #1 {
  %3 = alloca ptr, align 8
  %4 = alloca ptr, align 8
  store ptr %0, ptr %3, align 8, !tbaa !3
  store ptr %1, ptr %4, align 8, !tbaa !38
  %5 = load ptr, ptr %4, align 8, !tbaa !38
  %6 = load ptr, ptr %3, align 8, !tbaa !3
  %7 = getelementptr inbounds nuw %struct.Gia_Man_t_, ptr %6, i32 0, i32 6
  %8 = load ptr, ptr %7, align 8, !tbaa !43
  %9 = ptrtoint ptr %5 to i64
  %10 = ptrtoint ptr %8 to i64
  %11 = sub i64 %9, %10
  %12 = sdiv exact i64 %11, 12
  %13 = trunc i64 %12 to i32
  ret i32 %13
}

; Function Attrs: nounwind uwtable
define i32 @Gia_ManEquivSetColor_rec(ptr noundef %0, ptr noundef %1, i32 noundef %2) #0 {
  %4 = alloca i32, align 4
  %5 = alloca ptr, align 8
  %6 = alloca ptr, align 8
  %7 = alloca i32, align 4
  store ptr %0, ptr %5, align 8, !tbaa !3
  store ptr %1, ptr %6, align 8, !tbaa !38
  store i32 %2, ptr %7, align 4, !tbaa !33
  %8 = load ptr, ptr %5, align 8, !tbaa !3
  %9 = load ptr, ptr %5, align 8, !tbaa !3
  %10 = load ptr, ptr %6, align 8, !tbaa !38
  %11 = call i32 @Gia_ObjId(ptr noundef %9, ptr noundef %10)
  %12 = load i32, ptr %7, align 4, !tbaa !33
  %13 = call i32 @Gia_ObjVisitColor(ptr noundef %8, i32 noundef %11, i32 noundef %12)
  %14 = icmp ne i32 %13, 0
  br i1 %14, label %15, label %16

15:                                               ; preds = %3
  store i32 0, ptr %4, align 4
  br label %43

16:                                               ; preds = %3
  %17 = load ptr, ptr %5, align 8, !tbaa !3
  %18 = load ptr, ptr %6, align 8, !tbaa !38
  %19 = call i32 @Gia_ObjIsRo(ptr noundef %17, ptr noundef %18)
  %20 = icmp ne i32 %19, 0
  br i1 %20, label %21, label %30

21:                                               ; preds = %16
  %22 = load ptr, ptr %5, align 8, !tbaa !3
  %23 = load ptr, ptr %5, align 8, !tbaa !3
  %24 = load ptr, ptr %6, align 8, !tbaa !38
  %25 = call ptr @Gia_ObjRoToRi(ptr noundef %23, ptr noundef %24)
  %26 = call ptr @Gia_ObjFanin0(ptr noundef %25)
  %27 = load i32, ptr %7, align 4, !tbaa !33
  %28 = call i32 @Gia_ManEquivSetColor_rec(ptr noundef %22, ptr noundef %26, i32 noundef %27)
  %29 = add nsw i32 1, %28
  store i32 %29, ptr %4, align 4
  br label %43

30:                                               ; preds = %16
  %31 = load ptr, ptr %5, align 8, !tbaa !3
  %32 = load ptr, ptr %6, align 8, !tbaa !38
  %33 = call ptr @Gia_ObjFanin0(ptr noundef %32)
  %34 = load i32, ptr %7, align 4, !tbaa !33
  %35 = call i32 @Gia_ManEquivSetColor_rec(ptr noundef %31, ptr noundef %33, i32 noundef %34)
  %36 = add nsw i32 1, %35
  %37 = load ptr, ptr %5, align 8, !tbaa !3
  %38 = load ptr, ptr %6, align 8, !tbaa !38
  %39 = call ptr @Gia_ObjFanin1(ptr noundef %38)
  %40 = load i32, ptr %7, align 4, !tbaa !33
  %41 = call i32 @Gia_ManEquivSetColor_rec(ptr noundef %37, ptr noundef %39, i32 noundef %40)
  %42 = add nsw i32 %36, %41
  store i32 %42, ptr %4, align 4
  br label %43

43:                                               ; preds = %30, %21, %15
  %44 = load i32, ptr %4, align 4
  ret i32 %44
}