; Function Attrs: nofree nosync nounwind memory(readwrite, inaccessiblemem: none) uwtable
define i32 @Gia_ManEquivSetColor_rec(ptr noundef %0, ptr noundef %1, i32 noundef %2) local_unnamed_addr #17 {
  br label %tailrecurse38

tailrecurse38:                                    ; preds = %Gia_ObjIsRo.exit.thread, %3
  %accumulator.tr41 = phi i32 [ 0, %3 ], [ %accumulator.ret.tr, %Gia_ObjIsRo.exit.thread ]
  %.tr39 = phi ptr [ %1, %3 ], [ %51, %Gia_ObjIsRo.exit.thread ]
  %4 = getelementptr i8, ptr %0, i64 32
  %.not.i = icmp eq i32 %2, 0
  %5 = getelementptr inbounds nuw i8, ptr %0, i64 192
  %.sink9.i = select i1 %.not.i, i32 1073741824, i32 -2147483648
  %6 = getelementptr i8, ptr %0, i64 16
  %7 = getelementptr i8, ptr %0, i64 64
  %8 = getelementptr i8, ptr %0, i64 72
  %.val.pre = load ptr, ptr %4, align 8, !tbaa !36
  br label %tailrecurse

tailrecurse:                                      ; preds = %28, %tailrecurse38
  %.val = phi ptr [ %.val.pre, %tailrecurse38 ], [ %.val.i, %28 ]
  %accumulator.tr = phi i32 [ 0, %tailrecurse38 ], [ %42, %28 ]
  %.tr22 = phi ptr [ %.tr39, %tailrecurse38 ], [ %41, %28 ]
  %9 = ptrtoint ptr %.tr22 to i64
  %10 = ptrtoint ptr %.val to i64
  %11 = sub i64 %9, %10
  %12 = sdiv exact i64 %11, 12
  %13 = load ptr, ptr %5, align 8, !tbaa !49
  %sext = shl i64 %12, 32
  %14 = ashr exact i64 %sext, 30
  %15 = getelementptr inbounds i8, ptr %13, i64 %14
  %16 = load i32, ptr %15, align 4
  %17 = lshr i32 %16, 30
  %18 = and i32 %17, 1
  %19 = lshr i32 %16, 31
  %.0.i = select i1 %.not.i, i32 %18, i32 %19
  %20 = or i32 %16, %.sink9.i
  store i32 %20, ptr %15, align 4
  %.not = icmp eq i32 %.0.i, 0
  br i1 %.not, label %21, label %common.ret

21:                                               ; preds = %tailrecurse
  %.val17 = load i64, ptr %.tr22, align 4
  %22 = and i64 %.val17, 2684354559
  %narrow.i.not.i = icmp eq i64 %22, 2684354559
  br i1 %narrow.i.not.i, label %Gia_ObjIsRo.exit, label %Gia_ObjIsRo.exit.thread

Gia_ObjIsRo.exit:                                 ; preds = %21
  %23 = lshr i64 %.val17, 32
  %24 = trunc nuw i64 %23 to i32
  %25 = and i32 %24, 536870911
  %.val3.i = load i32, ptr %6, align 8, !tbaa !90
  %.val4.i = load ptr, ptr %7, align 8, !tbaa !44
  %26 = getelementptr i8, ptr %.val4.i, i64 4
  %.val4.val.i = load i32, ptr %26, align 4, !tbaa !31
  %27 = sub nsw i32 %.val4.val.i, %.val3.i
  %.not21 = icmp slt i32 %25, %27
  br i1 %.not21, label %Gia_ObjIsRo.exit.thread, label %28

28:                                               ; preds = %Gia_ObjIsRo.exit
  %.val5.i = load ptr, ptr %8, align 8, !tbaa !47
  %29 = getelementptr i8, ptr %.val5.i, i64 4
  %.val5.val.i = load i32, ptr %29, align 4, !tbaa !31
  %30 = add i32 %.val5.val.i, %25
  %31 = sub i32 %30, %.val4.val.i
  %.val.i = load ptr, ptr %4, align 8, !tbaa !36
  %32 = getelementptr i8, ptr %.val5.i, i64 8
  %.val4.val.i19 = load ptr, ptr %32, align 8, !tbaa !8
  %33 = sext i32 %31 to i64
  %34 = getelementptr inbounds i32, ptr %.val4.val.i19, i64 %33
  %35 = load i32, ptr %34, align 4, !tbaa !32
  %36 = sext i32 %35 to i64
  %37 = getelementptr inbounds %struct.Gia_Obj_t_, ptr %.val.i, i64 %36
  %38 = load i64, ptr %37, align 4
  %39 = and i64 %38, 536870911
  %40 = sub nsw i64 0, %39
  %41 = getelementptr inbounds %struct.Gia_Obj_t_, ptr %37, i64 %40
  %42 = add nuw nsw i32 %accumulator.tr, 1
  br label %tailrecurse

common.ret:                                       ; preds = %tailrecurse
  %accumulator.ret.tr42 = add i32 %accumulator.tr, %accumulator.tr41
  ret i32 %accumulator.ret.tr42

Gia_ObjIsRo.exit.thread:                          ; preds = %21, %Gia_ObjIsRo.exit
  %43 = and i64 %.val17, 536870911
  %44 = sub nsw i64 0, %43
  %45 = getelementptr inbounds %struct.Gia_Obj_t_, ptr %.tr22, i64 %44
  %46 = tail call i32 @Gia_ManEquivSetColor_rec(ptr noundef nonnull %0, ptr noundef nonnull %45, i32 noundef %2)
  %47 = load i64, ptr %.tr22, align 4
  %48 = lshr i64 %47, 32
  %49 = and i64 %48, 536870911
  %50 = sub nsw i64 0, %49
  %51 = getelementptr inbounds %struct.Gia_Obj_t_, ptr %.tr22, i64 %50
  %52 = add nuw i32 %accumulator.tr, 1
  %53 = add i32 %52, %46
  %accumulator.ret.tr = add i32 %53, %accumulator.tr41
  br label %tailrecurse38
}